target datalayout = "e-m:e-p270:32:32-p271:32:32-p272:64:64-i64:64-i128:128-f80:128-n8:16:32:64-S128"
target triple = "x86_64-pc-linux-gnu"

%struct.sqlite3_intck = type { ptr, ptr, ptr, ptr, ptr, i32, ptr, i32, i32, ptr, ptr }

@.str.46 = private unnamed_addr constant [19 x i8] c"parse_create_index\00", align 1

; Function Attrs: nounwind uwtable
define void @sqlite3_intck_close(ptr noundef %0) #0 {
  %2 = alloca ptr, align 8
  store ptr %0, ptr %2, align 8, !tbaa !216
  %3 = load ptr, ptr %2, align 8, !tbaa !216
  %4 = icmp ne ptr %3, null
  br i1 %4, label %5, label %30

5:                                                ; preds = %1
  %6 = load ptr, ptr %2, align 8, !tbaa !216
  %7 = getelementptr inbounds nuw %struct.sqlite3_intck, ptr %6, i32 0, i32 3
  %8 = load ptr, ptr %7, align 8, !tbaa !221
  %9 = call i32 @sqlite3_finalize(ptr noundef %8)
  %10 = load ptr, ptr %2, align 8, !tbaa !216
  %11 = getelementptr inbounds nuw %struct.sqlite3_intck, ptr %10, i32 0, i32 0
  %12 = load ptr, ptr %11, align 8, !tbaa !218
  %13 = call i32 @sqlite3_create_function(ptr noundef %12, ptr noundef @.str.46, i32 noundef 1, i32 noundef 1, ptr noundef null, ptr noundef null, ptr noundef null, ptr noundef null)
  %14 = load ptr, ptr %2, align 8, !tbaa !216
  %15 = getelementptr inbounds nuw %struct.sqlite3_intck, ptr %14, i32 0, i32 2
  %16 = load ptr, ptr %15, align 8, !tbaa !222
  call void @sqlite3_free(ptr noundef %16)
  %17 = load ptr, ptr %2, align 8, !tbaa !216
  %18 = getelementptr inbounds nuw %struct.sqlite3_intck, ptr %17, i32 0, i32 4
  %19 = load ptr, ptr %18, align 8, !tbaa !223
  call void @sqlite3_free(ptr noundef %19)
  %20 = load ptr, ptr %2, align 8, !tbaa !216
  %21 = getelementptr inbounds nuw %struct.sqlite3_intck, ptr %20, i32 0, i32 10
  %22 = load ptr, ptr %21, align 8, !tbaa !224
  call void @sqlite3_free(ptr noundef %22)
  %23 = load ptr, ptr %2, align 8, !tbaa !216
  %24 = getelementptr inbounds nuw %struct.sqlite3_intck, ptr %23, i32 0, i32 9
  %25 = load ptr, ptr %24, align 8, !tbaa !225
  call void @sqlite3_free(ptr noundef %25)
  %26 = load ptr, ptr %2, align 8, !tbaa !216
  %27 = getelementptr inbounds nuw %struct.sqlite3_intck, ptr %26, i32 0, i32 6
  %28 = load ptr, ptr %27, align 8, !tbaa !226
  call void @sqlite3_free(ptr noundef %28)
  %29 = load ptr, ptr %2, align 8, !tbaa !216
  call void @sqlite3_free(ptr noundef %29)
  br label %30

30:                                               ; preds = %5, %1
  ret void
}