; Function Attrs: nounwind uwtable
define void @sqlite3_intck_close(ptr noundef %0) local_unnamed_addr #2 {
  %.not = icmp eq ptr %0, null
  br i1 %.not, label %18, label %2

2:                                                ; preds = %1
  %3 = getelementptr inbounds nuw i8, ptr %0, i64 24
  %4 = load ptr, ptr %3, align 8, !tbaa !250
  %5 = tail call i32 @sqlite3_finalize(ptr noundef %4) #43
  %6 = load ptr, ptr %0, align 8, !tbaa !247
  %7 = tail call i32 @sqlite3_create_function(ptr noundef %6, ptr noundef nonnull @.str.46, i32 noundef 1, i32 noundef 1, ptr noundef null, ptr noundef null, ptr noundef null, ptr noundef null) #43
  %8 = getelementptr inbounds nuw i8, ptr %0, i64 16
  %9 = load ptr, ptr %8, align 8, !tbaa !251
  tail call void @sqlite3_free(ptr noundef %9) #43
  %10 = getelementptr inbounds nuw i8, ptr %0, i64 32
  %11 = load ptr, ptr %10, align 8, !tbaa !252
  tail call void @sqlite3_free(ptr noundef %11) #43
  %12 = getelementptr inbounds nuw i8, ptr %0, i64 72
  %13 = load ptr, ptr %12, align 8, !tbaa !253
  tail call void @sqlite3_free(ptr noundef %13) #43
  %14 = getelementptr inbounds nuw i8, ptr %0, i64 64
  %15 = load ptr, ptr %14, align 8, !tbaa !254
  tail call void @sqlite3_free(ptr noundef %15) #43
  %16 = getelementptr inbounds nuw i8, ptr %0, i64 48
  %17 = load ptr, ptr %16, align 8, !tbaa !255
  tail call void @sqlite3_free(ptr noundef %17) #43
  tail call void @sqlite3_free(ptr noundef nonnull %0) #43
  br label %18

18:                                               ; preds = %2, %1
  ret void
}